target datalayout = "e-m:e-p270:32:32-p271:32:32-p272:64:64-i64:64-i128:128-f80:128-n8:16:32:64-S128"
target triple = "x86_64-pc-linux-gnu"

%struct.strbuf_t = type { ptr, i64, i64, i32, i32, i32 }
%struct.json_config_t = type { [256 x i32], [256 x i8], %struct.strbuf_t, i32, i32, i32, i32, i32, i32, i32, i32, i32 }

; Function Attrs: nounwind uwtable
define internal i32 @json_destroy_config(ptr noundef %0) #0 {
  %2 = alloca ptr, align 8
  %3 = alloca ptr, align 8
  store ptr %0, ptr %2, align 8, !tbaa !4
  call void @llvm.lifetime.start.p0(i64 8, ptr %3) #9
  %4 = load ptr, ptr %2, align 8, !tbaa !4
  %5 = call ptr @lua_touserdata(ptr noundef %4, i32 noundef 1)
  store ptr %5, ptr %3, align 8, !tbaa !15
  %6 = load ptr, ptr %3, align 8, !tbaa !15
  %7 = icmp ne ptr %6, null
  br i1 %7, label %8, label %11

8:                                                ; preds = %1
  %9 = load ptr, ptr %3, align 8, !tbaa !15
  %10 = getelementptr inbounds nuw %struct.json_config_t, ptr %9, i32 0, i32 2
  call void @strbuf_free(ptr noundef %10)
  br label %11

11:                                               ; preds = %8, %1
  store ptr null, ptr %3, align 8, !tbaa !15
  call void @llvm.lifetime.end.p0(i64 8, ptr %3) #9
  ret i32 0
}