; Function Attrs: nounwind uwtable
define internal noundef i32 @json_destroy_config(ptr noundef %0) #0 {
  %2 = tail call ptr @lua_touserdata(ptr noundef %0, i32 noundef 1) #12
  %.not = icmp eq ptr %2, null
  br i1 %.not, label %5, label %3

3:                                                ; preds = %1
  %4 = getelementptr inbounds nuw i8, ptr %2, i64 1280
  tail call void @strbuf_free(ptr noundef nonnull %4) #12
  br label %5

5:                                                ; preds = %3, %1
  ret i32 0
}